; Function Attrs: mustprogress nounwind uwtable
define hidden i32 @_ZN4llvm8RAGreedy8tryEvictERKNS_12LiveIntervalERNS_15AllocationOrderERNS_15SmallVectorImplINS_8RegisterEEEhRKNS_8SmallSetIS7_Lj16ESt4lessIS7_EEE(ptr noundef nonnull align 8 dereferenceable(29034) %0, ptr noundef nonnull align 8 dereferenceable(120) %1, ptr noundef nonnull align 8 dereferenceable(76) %2, ptr noundef nonnull align 8 dereferenceable(16) %3, i8 noundef zeroext %4, ptr noundef nonnull align 1 %5) local_unnamed_addr #0 align 2 {
  %7 = alloca %"struct.llvm::NamedRegionTimer", align 8
  %8 = alloca %"class.llvm::StringRef", align 8
  %9 = alloca %"class.llvm::StringRef", align 8
  store ptr @_ZN4llvm12RegAllocBase14TimerGroupNameE, ptr %8, align 8
  %10 = tail call noundef i64 @strlen(ptr noundef nonnull dereferenceable(1) @_ZN4llvm12RegAllocBase14TimerGroupNameE) #19
  %11 = getelementptr inbounds nuw i8, ptr %8, i64 8
  store i64 %10, ptr %11, align 8
  store ptr @_ZN4llvm12RegAllocBase21TimerGroupDescriptionE, ptr %9, align 8
  %12 = tail call noundef i64 @strlen(ptr noundef nonnull dereferenceable(1) @_ZN4llvm12RegAllocBase21TimerGroupDescriptionE) #19
  %13 = getelementptr inbounds nuw i8, ptr %9, i64 8
  store i64 %12, ptr %13, align 8
  %14 = load i8, ptr @_ZN4llvm19TimePassesIsEnabledE, align 1
  %15 = trunc i8 %14 to i1
  call void @_ZN4llvm16NamedRegionTimerC1ENS_9StringRefES1_S1_S1_b(ptr noundef nonnull align 8 dereferenceable(8) %7, ptr nonnull @.str.48, i64 5, ptr nonnull @.str.49, i64 5, ptr noundef nonnull byval(%"class.llvm::StringRef") align 8 %8, ptr noundef nonnull byval(%"class.llvm::StringRef") align 8 %9, i1 noundef zeroext %15) #19
  %16 = getelementptr inbounds nuw i8, ptr %0, i64 928
  %17 = load ptr, ptr %16, align 8
  %18 = load ptr, ptr %17, align 8
  %19 = getelementptr inbounds i8, ptr %18, i64 16
  %20 = load ptr, ptr %19, align 8
  %21 = call i32 %20(ptr noundef nonnull align 8 dereferenceable(89) %17, ptr noundef nonnull align 8 dereferenceable(120) %1, ptr noundef nonnull align 8 dereferenceable(76) %2, i8 noundef zeroext %4, ptr noundef nonnull align 1 %5) #19
  %.not = icmp eq i32 %21, 0
  br i1 %.not, label %23, label %22

22:                                               ; preds = %6
  call void @_ZN4llvm8RAGreedy17evictInterferenceERKNS_12LiveIntervalENS_10MCRegisterERNS_15SmallVectorImplINS_8RegisterEEE(ptr noundef nonnull align 8 dereferenceable(29034) %0, ptr noundef nonnull align 8 dereferenceable(120) %1, i32 %21, ptr noundef nonnull align 8 dereferenceable(16) %3)
  br label %23

23:                                               ; preds = %22, %6
  %24 = load ptr, ptr %7, align 8
  %.not.i.i = icmp eq ptr %24, null
  br i1 %.not.i.i, label %_ZN4llvm16NamedRegionTimerD2Ev.exit, label %25

25:                                               ; preds = %23
  call void @_ZN4llvm5Timer9stopTimerEv(ptr noundef nonnull align 8 dereferenceable(176) %24) #19
  br label %_ZN4llvm16NamedRegionTimerD2Ev.exit

_ZN4llvm16NamedRegionTimerD2Ev.exit:              ; preds = %23, %25
  ret i32 %21
}